target datalayout = "e-m:e-p270:32:32-p271:32:32-p272:64:64-i64:64-i128:128-f80:128-n8:16:32:64-S128"
target triple = "x86_64-pc-linux-gnu"

%struct.ForBothState = type { ptr, ptr, i32 }
%struct.List = type { i32, i32, i32, ptr, [0 x %union.ListCell] }
%union.ListCell = type { ptr }
%struct.SortGroupClause = type { i32, i32, i32, i32, i8, i8, i8 }
%struct.WindowClauseSortData = type { ptr, ptr }

; Function Attrs: inlinehint nounwind uwtable
define internal i32 @list_length(ptr noundef %0) #2 {
  %2 = alloca ptr, align 8
  store ptr %0, ptr %2, align 8
  %3 = load ptr, ptr %2, align 8
  %4 = icmp ne ptr %3, null
  br i1 %4, label %5, label %9

5:                                                ; preds = %1
  %6 = load ptr, ptr %2, align 8
  %7 = getelementptr inbounds nuw %struct.List, ptr %6, i32 0, i32 1
  %8 = load i32, ptr %7, align 4
  br label %10

9:                                                ; preds = %1
  br label %10

10:                                               ; preds = %9, %5
  %11 = phi i32 [ %8, %5 ], [ 0, %9 ]
  ret i32 %11
}

; Function Attrs: nounwind uwtable
define internal i32 @common_prefix_cmp(ptr noundef %0, ptr noundef %1) #0 {
  %3 = alloca i32, align 4
  %4 = alloca ptr, align 8
  %5 = alloca ptr, align 8
  %6 = alloca ptr, align 8
  %7 = alloca ptr, align 8
  %8 = alloca ptr, align 8
  %9 = alloca ptr, align 8
  %10 = alloca %struct.ForBothState, align 8
  %11 = alloca i32, align 4
  %12 = alloca ptr, align 8
  %13 = alloca ptr, align 8
  store ptr %0, ptr %4, align 8
  store ptr %1, ptr %5, align 8
  call void @llvm.lifetime.start.p0(i64 8, ptr %6) #8
  %14 = load ptr, ptr %4, align 8
  store ptr %14, ptr %6, align 8
  call void @llvm.lifetime.start.p0(i64 8, ptr %7) #8
  %15 = load ptr, ptr %5, align 8
  store ptr %15, ptr %7, align 8
  call void @llvm.lifetime.start.p0(i64 8, ptr %8) #8
  call void @llvm.lifetime.start.p0(i64 8, ptr %9) #8
  call void @llvm.lifetime.start.p0(i64 24, ptr %10) #8
  %16 = getelementptr inbounds nuw %struct.ForBothState, ptr %10, i32 0, i32 0
  %17 = load ptr, ptr %6, align 8
  %18 = getelementptr inbounds nuw %struct.WindowClauseSortData, ptr %17, i32 0, i32 1
  %19 = load ptr, ptr %18, align 8
  store ptr %19, ptr %16, align 8
  %20 = getelementptr inbounds nuw %struct.ForBothState, ptr %10, i32 0, i32 1
  %21 = load ptr, ptr %7, align 8
  %22 = getelementptr inbounds nuw %struct.WindowClauseSortData, ptr %21, i32 0, i32 1
  %23 = load ptr, ptr %22, align 8
  store ptr %23, ptr %20, align 8
  %24 = getelementptr inbounds nuw %struct.ForBothState, ptr %10, i32 0, i32 2
  store i32 0, ptr %24, align 8
  %25 = getelementptr i8, ptr %10, i64 20
  call void @llvm.memset.p0.i64(ptr align 4 %25, i8 0, i64 4, i1 false)
  br label %26

26:                                               ; preds = %152, %2
  %27 = getelementptr inbounds nuw %struct.ForBothState, ptr %10, i32 0, i32 0
  %28 = load ptr, ptr %27, align 8
  %29 = icmp ne ptr %28, null
  br i1 %29, label %30, label %47

30:                                               ; preds = %26
  %31 = getelementptr inbounds nuw %struct.ForBothState, ptr %10, i32 0, i32 2
  %32 = load i32, ptr %31, align 8
  %33 = getelementptr inbounds nuw %struct.ForBothState, ptr %10, i32 0, i32 0
  %34 = load ptr, ptr %33, align 8
  %35 = getelementptr inbounds nuw %struct.List, ptr %34, i32 0, i32 1
  %36 = load i32, ptr %35, align 4
  %37 = icmp slt i32 %32, %36
  br i1 %37, label %38, label %47

38:                                               ; preds = %30
  %39 = getelementptr inbounds nuw %struct.ForBothState, ptr %10, i32 0, i32 0
  %40 = load ptr, ptr %39, align 8
  %41 = getelementptr inbounds nuw %struct.List, ptr %40, i32 0, i32 3
  %42 = load ptr, ptr %41, align 8
  %43 = getelementptr inbounds nuw %struct.ForBothState, ptr %10, i32 0, i32 2
  %44 = load i32, ptr %43, align 8
  %45 = sext i32 %44 to i64
  %46 = getelementptr inbounds %union.ListCell, ptr %42, i64 %45
  br label %48

47:                                               ; preds = %30, %26
  br label %48

48:                                               ; preds = %47, %38
  %49 = phi ptr [ %46, %38 ], [ null, %47 ]
  store ptr %49, ptr %8, align 8
  %50 = getelementptr inbounds nuw %struct.ForBothState, ptr %10, i32 0, i32 1
  %51 = load ptr, ptr %50, align 8
  %52 = icmp ne ptr %51, null
  br i1 %52, label %53, label %70

53:                                               ; preds = %48
  %54 = getelementptr inbounds nuw %struct.ForBothState, ptr %10, i32 0, i32 2
  %55 = load i32, ptr %54, align 8
  %56 = getelementptr inbounds nuw %struct.ForBothState, ptr %10, i32 0, i32 1
  %57 = load ptr, ptr %56, align 8
  %58 = getelementptr inbounds nuw %struct.List, ptr %57, i32 0, i32 1
  %59 = load i32, ptr %58, align 4
  %60 = icmp slt i32 %55, %59
  br i1 %60, label %61, label %70

61:                                               ; preds = %53
  %62 = getelementptr inbounds nuw %struct.ForBothState, ptr %10, i32 0, i32 1
  %63 = load ptr, ptr %62, align 8
  %64 = getelementptr inbounds nuw %struct.List, ptr %63, i32 0, i32 3
  %65 = load ptr, ptr %64, align 8
  %66 = getelementptr inbounds nuw %struct.ForBothState, ptr %10, i32 0, i32 2
  %67 = load i32, ptr %66, align 8
  %68 = sext i32 %67 to i64
  %69 = getelementptr inbounds %union.ListCell, ptr %65, i64 %68
  br label %71

70:                                               ; preds = %53, %48
  br label %71

71:                                               ; preds = %70, %61
  %72 = phi ptr [ %69, %61 ], [ null, %70 ]
  store ptr %72, ptr %9, align 8
  %73 = load ptr, ptr %8, align 8
  %74 = icmp ne ptr %73, null
  br i1 %74, label %75, label %78

75:                                               ; preds = %71
  %76 = load ptr, ptr %9, align 8
  %77 = icmp ne ptr %76, null
  br label %78

78:                                               ; preds = %75, %71
  %79 = phi i1 [ false, %71 ], [ %77, %75 ]
  br i1 %79, label %81, label %80

80:                                               ; preds = %78
  store i32 2, ptr %11, align 4
  br label %156

81:                                               ; preds = %78
  call void @llvm.lifetime.start.p0(i64 8, ptr %12) #8
  %82 = load ptr, ptr %8, align 8
  %83 = load ptr, ptr %82, align 8
  store ptr %83, ptr %12, align 8
  call void @llvm.lifetime.start.p0(i64 8, ptr %13) #8
  %84 = load ptr, ptr %9, align 8
  %85 = load ptr, ptr %84, align 8
  store ptr %85, ptr %13, align 8
  %86 = load ptr, ptr %12, align 8
  %87 = getelementptr inbounds nuw %struct.SortGroupClause, ptr %86, i32 0, i32 1
  %88 = load i32, ptr %87, align 4
  %89 = load ptr, ptr %13, align 8
  %90 = getelementptr inbounds nuw %struct.SortGroupClause, ptr %89, i32 0, i32 1
  %91 = load i32, ptr %90, align 4
  %92 = icmp ugt i32 %88, %91
  br i1 %92, label %93, label %94

93:                                               ; preds = %81
  store i32 -1, ptr %3, align 4
  store i32 1, ptr %11, align 4
  br label %149

94:                                               ; preds = %81
  %95 = load ptr, ptr %12, align 8
  %96 = getelementptr inbounds nuw %struct.SortGroupClause, ptr %95, i32 0, i32 1
  %97 = load i32, ptr %96, align 4
  %98 = load ptr, ptr %13, align 8
  %99 = getelementptr inbounds nuw %struct.SortGroupClause, ptr %98, i32 0, i32 1
  %100 = load i32, ptr %99, align 4
  %101 = icmp ult i32 %97, %100
  br i1 %101, label %102, label %103

102:                                              ; preds = %94
  store i32 1, ptr %3, align 4
  store i32 1, ptr %11, align 4
  br label %149

103:                                              ; preds = %94
  %104 = load ptr, ptr %12, align 8
  %105 = getelementptr inbounds nuw %struct.SortGroupClause, ptr %104, i32 0, i32 3
  %106 = load i32, ptr %105, align 4
  %107 = load ptr, ptr %13, align 8
  %108 = getelementptr inbounds nuw %struct.SortGroupClause, ptr %107, i32 0, i32 3
  %109 = load i32, ptr %108, align 4
  %110 = icmp ugt i32 %106, %109
  br i1 %110, label %111, label %112

111:                                              ; preds = %103
  store i32 -1, ptr %3, align 4
  store i32 1, ptr %11, align 4
  br label %149

112:                                              ; preds = %103
  %113 = load ptr, ptr %12, align 8
  %114 = getelementptr inbounds nuw %struct.SortGroupClause, ptr %113, i32 0, i32 3
  %115 = load i32, ptr %114, align 4
  %116 = load ptr, ptr %13, align 8
  %117 = getelementptr inbounds nuw %struct.SortGroupClause, ptr %116, i32 0, i32 3
  %118 = load i32, ptr %117, align 4
  %119 = icmp ult i32 %115, %118
  br i1 %119, label %120, label %121

120:                                              ; preds = %112
  store i32 1, ptr %3, align 4
  store i32 1, ptr %11, align 4
  br label %149

121:                                              ; preds = %112
  %122 = load ptr, ptr %12, align 8
  %123 = getelementptr inbounds nuw %struct.SortGroupClause, ptr %122, i32 0, i32 5
  %124 = load i8, ptr %123, align 1, !range !4, !noundef !5
  %125 = trunc i8 %124 to i1
  br i1 %125, label %126, label %132

126:                                              ; preds = %121
  %127 = load ptr, ptr %13, align 8
  %128 = getelementptr inbounds nuw %struct.SortGroupClause, ptr %127, i32 0, i32 5
  %129 = load i8, ptr %128, align 1, !range !4, !noundef !5
  %130 = trunc i8 %129 to i1
  br i1 %130, label %132, label %131

131:                                              ; preds = %126
  store i32 -1, ptr %3, align 4
  store i32 1, ptr %11, align 4
  br label %149

132:                                              ; preds = %126, %121
  %133 = load ptr, ptr %12, align 8
  %134 = getelementptr inbounds nuw %struct.SortGroupClause, ptr %133, i32 0, i32 5
  %135 = load i8, ptr %134, align 1, !range !4, !noundef !5
  %136 = trunc i8 %135 to i1
  br i1 %136, label %143, label %137

137:                                              ; preds = %132
  %138 = load ptr, ptr %13, align 8
  %139 = getelementptr inbounds nuw %struct.SortGroupClause, ptr %138, i32 0, i32 5
  %140 = load i8, ptr %139, align 1, !range !4, !noundef !5
  %141 = trunc i8 %140 to i1
  br i1 %141, label %142, label %143

142:                                              ; preds = %137
  store i32 1, ptr %3, align 4
  store i32 1, ptr %11, align 4
  br label %149

143:                                              ; preds = %137, %132
  br label %144

144:                                              ; preds = %143
  br label %145

145:                                              ; preds = %144
  br label %146

146:                                              ; preds = %145
  br label %147

147:                                              ; preds = %146
  br label %148

148:                                              ; preds = %147
  store i32 0, ptr %11, align 4
  br label %149

149:                                              ; preds = %148, %142, %131, %120, %111, %102, %93
  call void @llvm.lifetime.end.p0(i64 8, ptr %13) #8
  call void @llvm.lifetime.end.p0(i64 8, ptr %12) #8
  %150 = load i32, ptr %11, align 4
  switch i32 %150, label %156 [
    i32 0, label %151
  ]

151:                                              ; preds = %149
  br label %152

152:                                              ; preds = %151
  %153 = getelementptr inbounds nuw %struct.ForBothState, ptr %10, i32 0, i32 2
  %154 = load i32, ptr %153, align 8
  %155 = add i32 %154, 1
  store i32 %155, ptr %153, align 8
  br label %26, !llvm.loop !79

156:                                              ; preds = %149, %80
  call void @llvm.lifetime.end.p0(i64 24, ptr %10) #8
  %157 = load i32, ptr %11, align 4
  switch i32 %157, label %182 [
    i32 2, label %158
  ]

158:                                              ; preds = %156
  %159 = load ptr, ptr %6, align 8
  %160 = getelementptr inbounds nuw %struct.WindowClauseSortData, ptr %159, i32 0, i32 1
  %161 = load ptr, ptr %160, align 8
  %162 = call i32 @list_length(ptr noundef %161)
  %163 = load ptr, ptr %7, align 8
  %164 = getelementptr inbounds nuw %struct.WindowClauseSortData, ptr %163, i32 0, i32 1
  %165 = load ptr, ptr %164, align 8
  %166 = call i32 @list_length(ptr noundef %165)
  %167 = icmp sgt i32 %162, %166
  br i1 %167, label %168, label %169

168:                                              ; preds = %158
  store i32 -1, ptr %3, align 4
  store i32 1, ptr %11, align 4
  br label %182

169:                                              ; preds = %158
  %170 = load ptr, ptr %6, align 8
  %171 = getelementptr inbounds nuw %struct.WindowClauseSortData, ptr %170, i32 0, i32 1
  %172 = load ptr, ptr %171, align 8
  %173 = call i32 @list_length(ptr noundef %172)
  %174 = load ptr, ptr %7, align 8
  %175 = getelementptr inbounds nuw %struct.WindowClauseSortData, ptr %174, i32 0, i32 1
  %176 = load ptr, ptr %175, align 8
  %177 = call i32 @list_length(ptr noundef %176)
  %178 = icmp slt i32 %173, %177
  br i1 %178, label %179, label %180

179:                                              ; preds = %169
  store i32 1, ptr %3, align 4
  store i32 1, ptr %11, align 4
  br label %182

180:                                              ; preds = %169
  br label %181

181:                                              ; preds = %180
  store i32 0, ptr %3, align 4
  store i32 1, ptr %11, align 4
  br label %182

182:                                              ; preds = %181, %179, %168, %156
  call void @llvm.lifetime.end.p0(i64 8, ptr %9) #8
  call void @llvm.lifetime.end.p0(i64 8, ptr %8) #8
  call void @llvm.lifetime.end.p0(i64 8, ptr %7) #8
  call void @llvm.lifetime.end.p0(i64 8, ptr %6) #8
  %183 = load i32, ptr %3, align 4
  ret i32 %183
}