; Function Attrs: nofree norecurse nosync nounwind memory(read, inaccessiblemem: none) uwtable
define internal range(i32 -1, 2) i32 @common_prefix_cmp(ptr noundef readonly captures(none) %0, ptr noundef readonly captures(none) %1) #9 {
  %3 = getelementptr inbounds nuw i8, ptr %0, i64 8
  %4 = load ptr, ptr %3, align 8
  %5 = getelementptr inbounds nuw i8, ptr %1, i64 8
  %6 = load ptr, ptr %5, align 8
  %.not = icmp eq ptr %4, null
  %.not45 = icmp eq ptr %6, null
  %7 = getelementptr inbounds nuw i8, ptr %4, i64 4
  %8 = getelementptr inbounds nuw i8, ptr %4, i64 16
  %9 = getelementptr inbounds nuw i8, ptr %6, i64 16
  br i1 %.not45, label %.split.us, label %.split

.split.us:                                        ; preds = %2
  br i1 %.not, label %list_length.exit54, label %list_length.exit.thread90

.split:                                           ; preds = %2
  br i1 %.not, label %list_length.exit.thread86, label %.split.split

.split.split:                                     ; preds = %.split
  %10 = getelementptr inbounds nuw i8, ptr %6, i64 4
  %11 = load i32, ptr %10, align 4
  %12 = load i32, ptr %7, align 4
  %13 = sext i32 %12 to i64
  %smax = tail call i32 @llvm.smax.i32(i32 %11, i32 0)
  %wide.trip.count = zext nneg i32 %smax to i64
  br label %14

14:                                               ; preds = %.thread57, %.split.split
  %indvars.iv = phi i64 [ %indvars.iv.next, %.thread57 ], [ 0, %.split.split ]
  %15 = icmp slt i64 %indvars.iv, %13
  br i1 %15, label %16, label %19

16:                                               ; preds = %14
  %17 = load ptr, ptr %8, align 8
  %18 = getelementptr inbounds nuw %union.ListCell, ptr %17, i64 %indvars.iv
  br label %19

19:                                               ; preds = %14, %16
  %20 = phi ptr [ %18, %16 ], [ null, %14 ]
  %exitcond.not = icmp eq i64 %indvars.iv, %wide.trip.count
  br i1 %exitcond.not, label %list_length.exit.thread86.sink.split, label %21

21:                                               ; preds = %19
  %22 = load ptr, ptr %9, align 8
  %23 = icmp eq ptr %20, null
  %24 = icmp eq ptr %22, null
  %.not48 = select i1 %23, i1 true, i1 %24
  br i1 %.not48, label %list_length.exit.thread86.sink.split, label %25

25:                                               ; preds = %21
  %26 = getelementptr inbounds nuw %union.ListCell, ptr %22, i64 %indvars.iv
  %27 = load ptr, ptr %20, align 8
  %28 = load ptr, ptr %26, align 8
  %29 = getelementptr inbounds nuw i8, ptr %27, i64 4
  %30 = load i32, ptr %29, align 4
  %31 = getelementptr inbounds nuw i8, ptr %28, i64 4
  %32 = load i32, ptr %31, align 4
  %33 = icmp ugt i32 %30, %32
  br i1 %33, label %.loopexit, label %34

34:                                               ; preds = %25
  %35 = icmp ult i32 %30, %32
  br i1 %35, label %.loopexit, label %36

36:                                               ; preds = %34
  %37 = getelementptr inbounds nuw i8, ptr %27, i64 12
  %38 = load i32, ptr %37, align 4
  %39 = getelementptr inbounds nuw i8, ptr %28, i64 12
  %40 = load i32, ptr %39, align 4
  %41 = icmp ugt i32 %38, %40
  br i1 %41, label %.loopexit, label %42

42:                                               ; preds = %36
  %43 = icmp ult i32 %38, %40
  br i1 %43, label %.loopexit, label %44

44:                                               ; preds = %42
  %45 = getelementptr inbounds nuw i8, ptr %27, i64 17
  %46 = load i8, ptr %45, align 1, !range !4, !noundef !5
  %47 = trunc nuw i8 %46 to i1
  %48 = getelementptr inbounds nuw i8, ptr %28, i64 17
  %49 = load i8, ptr %48, align 1, !range !4, !noundef !5
  %50 = trunc nuw i8 %49 to i1
  br i1 %47, label %51, label %52

51:                                               ; preds = %44
  br i1 %50, label %.thread57, label %.loopexit

52:                                               ; preds = %44
  br i1 %50, label %.loopexit, label %.thread57

.thread57:                                        ; preds = %51, %52
  %indvars.iv.next = add nuw nsw i64 %indvars.iv, 1
  br label %14, !llvm.loop !36

list_length.exit.thread90:                        ; preds = %.split.us
  %53 = load i32, ptr %7, align 4
  br label %list_length.exit50

list_length.exit.thread86.sink.split:             ; preds = %19, %21
  %54 = load i32, ptr %7, align 4
  br label %list_length.exit.thread86

list_length.exit.thread86:                        ; preds = %list_length.exit.thread86.sink.split, %.split
  %55 = phi i32 [ 0, %.split ], [ %54, %list_length.exit.thread86.sink.split ]
  %56 = getelementptr inbounds nuw i8, ptr %6, i64 4
  %57 = load i32, ptr %56, align 4
  br label %list_length.exit50

list_length.exit50:                               ; preds = %list_length.exit.thread90, %list_length.exit.thread86
  %58 = phi i32 [ %55, %list_length.exit.thread86 ], [ %53, %list_length.exit.thread90 ]
  %.us-phi688385 = phi i1 [ %.not, %list_length.exit.thread86 ], [ false, %list_length.exit.thread90 ]
  %59 = phi i32 [ %57, %list_length.exit.thread86 ], [ 0, %list_length.exit.thread90 ]
  %60 = icmp sgt i32 %58, %59
  br i1 %60, label %.loopexit, label %61

61:                                               ; preds = %list_length.exit50
  br i1 %.us-phi688385, label %list_length.exit52, label %62

62:                                               ; preds = %61
  %63 = load i32, ptr %7, align 4
  br label %list_length.exit52

list_length.exit52:                               ; preds = %61, %62
  %64 = phi i32 [ %63, %62 ], [ 0, %61 ]
  br i1 %.not45, label %list_length.exit54, label %65

65:                                               ; preds = %list_length.exit52
  %66 = getelementptr inbounds nuw i8, ptr %6, i64 4
  %67 = load i32, ptr %66, align 4
  br label %list_length.exit54

list_length.exit54:                               ; preds = %.split.us, %list_length.exit52, %65
  %68 = phi i32 [ %64, %65 ], [ %64, %list_length.exit52 ], [ 0, %.split.us ]
  %69 = phi i32 [ %67, %65 ], [ 0, %list_length.exit52 ], [ 0, %.split.us ]
  %70 = icmp slt i32 %68, %69
  %. = zext i1 %70 to i32
  br label %.loopexit

.loopexit:                                        ; preds = %25, %34, %36, %42, %51, %52, %list_length.exit54, %list_length.exit50
  %.3 = phi i32 [ -1, %list_length.exit50 ], [ %., %list_length.exit54 ], [ -1, %25 ], [ 1, %34 ], [ -1, %36 ], [ 1, %42 ], [ -1, %51 ], [ 1, %52 ]
  ret i32 %.3
}